target datalayout = "e-m:e-p270:32:32-p271:32:32-p272:64:64-i64:64-i128:128-f80:128-n8:16:32:64-S128"
target triple = "x86_64-pc-linux-gnu"

%"class.boost::asio::detail::tss_ptr" = type { i8 }
%"struct.boost::asio::execution::detail::any_executor_base::object_fns" = type { ptr, ptr, ptr, ptr }
%"class.boost::asio::any_io_executor" = type { %"class.boost::asio::execution::any_executor" }
%"class.boost::asio::execution::any_executor" = type { %"class.boost::asio::execution::detail::any_executor_base", ptr }
%"class.boost::asio::execution::detail::any_executor_base" = type { %"struct.boost::asio::aligned_storage<24, 8>::type", ptr, ptr, ptr }
%"struct.boost::asio::aligned_storage<24, 8>::type" = type { [24 x i8] }
%"class.boost::system::error_code" = type { %union.anon.3, i64 }
%union.anon.3 = type { %"struct.boost::system::error_code::data" }
%"struct.boost::system::error_code::data" = type { i32, ptr }
%class.anon.4 = type { ptr }
%"class.boost::asio::detail::scheduler_operation.base" = type <{ ptr, ptr, i32 }>
%"class.boost::asio::detail::thread_info_base" = type { [12 x ptr], i32, %"class.std::__exception_ptr::exception_ptr" }
%"class.std::__exception_ptr::exception_ptr" = type { ptr }
%"class.boost::asio::detail::call_stack<boost::asio::detail::thread_context, boost::asio::detail::thread_info_base>::context" = type { ptr, ptr, ptr }
%"class.boost::asio::detail::wait_op" = type { %"class.boost::asio::detail::scheduler_operation.base", %"class.boost::system::error_code", ptr }
%"class.boost::asio::detail::recycling_allocator.27" = type { i8 }
%"class.std::allocator.25" = type { i8 }
%"struct.boost::asio::detail::wait_handler<(lambda at /home/dtcxzyw/WorkSpace/Projects/compilers/llvm-opt-benchmark/bench/boost/boost/libs/process/test/v2/target.cpp:102:22), boost::asio::any_io_executor>::ptr" = type { ptr, ptr, ptr }
%"class.boost::asio::detail::recycling_allocator.53" = type { i8 }
%"class.boost::asio::detail::wait_handler" = type { %"class.boost::asio::detail::wait_op", %class.anon.4, %"class.boost::asio::detail::handler_work" }
%"class.boost::asio::detail::handler_work" = type { %"class.boost::asio::detail::handler_work_base" }
%"class.boost::asio::detail::handler_work_base" = type { %"class.boost::asio::any_io_executor" }

@_ZN5boost4asio6detail10call_stackINS1_14thread_contextENS1_16thread_info_baseEE4top_E = linkonce_odr dso_local global %"class.boost::asio::detail::tss_ptr" zeroinitializer, comdat, align 1
@_ZN5boost4asio6detail15keyword_tss_ptrINS1_10call_stackINS1_14thread_contextENS1_16thread_info_baseEE7contextEE6value_E = linkonce_odr dso_local thread_local global ptr null, comdat, align 8

; Function Attrs: mustprogress nounwind uwtable
define linkonce_odr hidden noundef ptr @_ZNK5boost4asio6detail15keyword_tss_ptrINS1_10call_stackINS1_14thread_contextENS1_16thread_info_baseEE7contextEEcvPS7_Ev(ptr noundef nonnull align 1 dereferenceable(1) %0) #6 comdat align 2 {
  %2 = alloca ptr, align 8
  store ptr %0, ptr %2, align 8, !tbaa !8
  %3 = call align 8 ptr @llvm.threadlocal.address.p0(ptr align 8 @_ZN5boost4asio6detail15keyword_tss_ptrINS1_10call_stackINS1_14thread_contextENS1_16thread_info_baseEE7contextEE6value_E)
  %4 = load ptr, ptr %3, align 8, !tbaa !8
  ret ptr %4
}

; Function Attrs: mustprogress nounwind uwtable
define linkonce_odr hidden noundef zeroext i1 @_ZNK5boost4asio9execution6detail17any_executor_basentEv(ptr noundef nonnull align 8 dereferenceable(48) %0) #6 comdat align 2 {
  %2 = alloca ptr, align 8
  store ptr %0, ptr %2, align 8, !tbaa !8
  %3 = load ptr, ptr %2, align 8
  %4 = getelementptr inbounds nuw %"class.boost::asio::execution::detail::any_executor_base", ptr %3, i32 0, i32 2
  %5 = load ptr, ptr %4, align 8, !tbaa !289
  %6 = icmp eq ptr %5, null
  ret i1 %6
}

; Function Attrs: inlinehint mustprogress nounwind uwtable
define linkonce_odr hidden void @_ZN5boost4asio14aligned_deleteEPv(ptr noundef %0) #5 comdat {
  %2 = alloca ptr, align 8
  store ptr %0, ptr %2, align 8, !tbaa !8
  %3 = load ptr, ptr %2, align 8, !tbaa !8
  call void @free(ptr noundef %3) #3
  ret void
}

; Function Attrs: mustprogress nounwind uwtable
define linkonce_odr hidden noundef ptr @_ZN5boost4asio6detail10call_stackINS1_14thread_contextENS1_16thread_info_baseEE3topEv() #6 comdat align 2 {
  %1 = alloca ptr, align 8
  call void @llvm.lifetime.start.p0(i64 8, ptr %1) #3
  %2 = call noundef ptr @_ZNK5boost4asio6detail15keyword_tss_ptrINS1_10call_stackINS1_14thread_contextENS1_16thread_info_baseEE7contextEEcvPS7_Ev(ptr noundef nonnull align 1 dereferenceable(1) @_ZN5boost4asio6detail10call_stackINS1_14thread_contextENS1_16thread_info_baseEE4top_E)
  store ptr %2, ptr %1, align 8, !tbaa !8
  %3 = load ptr, ptr %1, align 8, !tbaa !8
  %4 = icmp ne ptr %3, null
  br i1 %4, label %5, label %9

5:                                                ; preds = %0
  %6 = load ptr, ptr %1, align 8, !tbaa !8
  %7 = getelementptr inbounds nuw %"class.boost::asio::detail::call_stack<boost::asio::detail::thread_context, boost::asio::detail::thread_info_base>::context", ptr %6, i32 0, i32 1
  %8 = load ptr, ptr %7, align 8, !tbaa !208
  br label %10

9:                                                ; preds = %0
  br label %10

10:                                               ; preds = %9, %5
  %11 = phi ptr [ %8, %5 ], [ null, %9 ]
  call void @llvm.lifetime.end.p0(i64 8, ptr %1) #3
  ret ptr %11
}

; Function Attrs: mustprogress nounwind uwtable
define linkonce_odr hidden void @_ZN5boost4asio9execution6detail17any_executor_baseD2Ev(ptr noundef nonnull align 8 dereferenceable(48) %0) unnamed_addr #6 comdat align 2 personality ptr @__gxx_personality_v0 {
  %2 = alloca ptr, align 8
  store ptr %0, ptr %2, align 8, !tbaa !8
  %3 = load ptr, ptr %2, align 8
  %4 = call noundef zeroext i1 @_ZNK5boost4asio9execution6detail17any_executor_basentEv(ptr noundef nonnull align 8 dereferenceable(48) %3) #3
  br i1 %4, label %11, label %5

5:                                                ; preds = %1
  %6 = getelementptr inbounds nuw %"class.boost::asio::execution::detail::any_executor_base", ptr %3, i32 0, i32 1
  %7 = load ptr, ptr %6, align 8, !tbaa !288
  %8 = getelementptr inbounds nuw %"struct.boost::asio::execution::detail::any_executor_base::object_fns", ptr %7, i32 0, i32 0
  %9 = load ptr, ptr %8, align 8, !tbaa !359
  invoke void %9(ptr noundef nonnull align 8 dereferenceable(48) %3)
          to label %10 unwind label %12

10:                                               ; preds = %5
  br label %11

11:                                               ; preds = %10, %1
  ret void

12:                                               ; preds = %5
  %13 = landingpad { ptr, i32 }
          catch ptr null
  %14 = extractvalue { ptr, i32 } %13, 0
  call void @__clang_call_terminate(ptr %14) #26
  unreachable
}

; Function Attrs: mustprogress nounwind uwtable
define linkonce_odr hidden void @_ZN5boost4asio6detail16thread_info_base10deallocateINS2_11default_tagEEEvT_PS2_Pvm(ptr noundef %0, ptr noundef %1, i64 noundef %2) #6 comdat align 2 {
  %4 = alloca ptr, align 8
  %5 = alloca ptr, align 8
  %6 = alloca i64, align 8
  %7 = alloca i32, align 4
  %8 = alloca i32, align 4
  %9 = alloca ptr, align 8
  store ptr %0, ptr %4, align 8, !tbaa !8
  store ptr %1, ptr %5, align 8, !tbaa !8
  store i64 %2, ptr %6, align 8, !tbaa !46
  %10 = load i64, ptr %6, align 8, !tbaa !46
  %11 = icmp ule i64 %10, 1020
  br i1 %11, label %12, label %50

12:                                               ; preds = %3
  %13 = load ptr, ptr %4, align 8, !tbaa !8
  %14 = icmp ne ptr %13, null
  br i1 %14, label %15, label %49

15:                                               ; preds = %12
  call void @llvm.lifetime.start.p0(i64 4, ptr %7) #3
  store i32 0, ptr %7, align 4, !tbaa !4
  br label %16

16:                                               ; preds = %43, %15
  %17 = load i32, ptr %7, align 4, !tbaa !4
  %18 = icmp slt i32 %17, 2
  br i1 %18, label %20, label %19

19:                                               ; preds = %16
  store i32 2, ptr %8, align 4
  br label %46

20:                                               ; preds = %16
  %21 = load ptr, ptr %4, align 8, !tbaa !8
  %22 = getelementptr inbounds nuw %"class.boost::asio::detail::thread_info_base", ptr %21, i32 0, i32 0
  %23 = load i32, ptr %7, align 4, !tbaa !4
  %24 = sext i32 %23 to i64
  %25 = getelementptr inbounds [12 x ptr], ptr %22, i64 0, i64 %24
  %26 = load ptr, ptr %25, align 8, !tbaa !8
  %27 = icmp eq ptr %26, null
  br i1 %27, label %28, label %42

28:                                               ; preds = %20
  call void @llvm.lifetime.start.p0(i64 8, ptr %9) #3
  %29 = load ptr, ptr %5, align 8, !tbaa !8
  store ptr %29, ptr %9, align 8, !tbaa !8
  %30 = load ptr, ptr %9, align 8, !tbaa !8
  %31 = load i64, ptr %6, align 8, !tbaa !46
  %32 = getelementptr inbounds nuw i8, ptr %30, i64 %31
  %33 = load i8, ptr %32, align 1, !tbaa !19
  %34 = load ptr, ptr %9, align 8, !tbaa !8
  %35 = getelementptr inbounds i8, ptr %34, i64 0
  store i8 %33, ptr %35, align 1, !tbaa !19
  %36 = load ptr, ptr %5, align 8, !tbaa !8
  %37 = load ptr, ptr %4, align 8, !tbaa !8
  %38 = getelementptr inbounds nuw %"class.boost::asio::detail::thread_info_base", ptr %37, i32 0, i32 0
  %39 = load i32, ptr %7, align 4, !tbaa !4
  %40 = sext i32 %39 to i64
  %41 = getelementptr inbounds [12 x ptr], ptr %38, i64 0, i64 %40
  store ptr %36, ptr %41, align 8, !tbaa !8
  store i32 1, ptr %8, align 4
  call void @llvm.lifetime.end.p0(i64 8, ptr %9) #3
  br label %46

42:                                               ; preds = %20
  br label %43

43:                                               ; preds = %42
  %44 = load i32, ptr %7, align 4, !tbaa !4
  %45 = add nsw i32 %44, 1
  store i32 %45, ptr %7, align 4, !tbaa !4
  br label %16, !llvm.loop !308

46:                                               ; preds = %28, %19
  call void @llvm.lifetime.end.p0(i64 4, ptr %7) #3
  %47 = load i32, ptr %8, align 4
  switch i32 %47, label %53 [
    i32 2, label %48
    i32 1, label %52
  ]

48:                                               ; preds = %46
  br label %49

49:                                               ; preds = %48, %12
  br label %50

50:                                               ; preds = %49, %3
  %51 = load ptr, ptr %5, align 8, !tbaa !8
  call void @_ZN5boost4asio14aligned_deleteEPv(ptr noundef %51)
  br label %52

52:                                               ; preds = %50, %46
  ret void

53:                                               ; preds = %46
  unreachable
}

; Function Attrs: inlinehint mustprogress uwtable
define linkonce_odr hidden noundef ptr @_ZN5boost4asio6detail14thread_context24top_of_thread_call_stackEv() #4 comdat align 2 {
  %1 = call noundef ptr @_ZN5boost4asio6detail10call_stackINS1_14thread_contextENS1_16thread_info_baseEE3topEv()
  ret ptr %1
}

; Function Attrs: mustprogress nounwind uwtable
define linkonce_odr hidden void @_ZN5boost4asio6detail19recycling_allocatorIvNS1_16thread_info_base11default_tagEEC2Ev(ptr noundef nonnull align 1 dereferenceable(1) %0) unnamed_addr #6 comdat align 2 {
  %2 = alloca ptr, align 8
  store ptr %0, ptr %2, align 8, !tbaa !8
  ret void
}

; Function Attrs: mustprogress nounwind uwtable
define internal void @"_ZN5boost4asio6detail25associated_allocator_implIZ4mainE3$_1SaIvEvvE3getERKS3_"(ptr noundef nonnull align 8 dereferenceable(8) %0) #6 align 2 {
  %2 = alloca ptr, align 8
  store ptr %0, ptr %2, align 8, !tbaa !8
  ret void
}

; Function Attrs: mustprogress nounwind uwtable
define linkonce_odr hidden void @_ZN5boost4asio6detail19scheduler_operationD2Ev(ptr noundef nonnull align 8 dereferenceable(20) %0) unnamed_addr #6 comdat align 2 {
  %2 = alloca ptr, align 8
  store ptr %0, ptr %2, align 8, !tbaa !8
  ret void
}

; Function Attrs: inlinehint mustprogress nounwind uwtable
define linkonce_odr hidden void @_ZN5boost4asio6detail17handler_work_baseINS0_15any_io_executorEvNS0_10io_contextENS0_8executorEvED2Ev(ptr noundef nonnull align 8 dereferenceable(56) %0) unnamed_addr #5 comdat align 2 {
  %2 = alloca ptr, align 8
  store ptr %0, ptr %2, align 8, !tbaa !8
  %3 = load ptr, ptr %2, align 8
  %4 = getelementptr inbounds nuw %"class.boost::asio::detail::handler_work_base", ptr %3, i32 0, i32 0
  call void @_ZN5boost4asio9execution6detail17any_executor_baseD2Ev(ptr noundef nonnull align 8 dereferenceable(56) %4) #3
  ret void
}

; Function Attrs: mustprogress uwtable
define internal void @"_ZN5boost4asio6detail19recycling_allocatorINS1_12wait_handlerIZ4mainE3$_1NS0_15any_io_executorEEENS1_16thread_info_base11default_tagEE10deallocateEPS6_m"(ptr noundef nonnull align 1 dereferenceable(1) %0, ptr noundef %1, i64 noundef %2) #9 align 2 {
  %4 = alloca ptr, align 8
  %5 = alloca ptr, align 8
  %6 = alloca i64, align 8
  store ptr %0, ptr %4, align 8, !tbaa !8
  store ptr %1, ptr %5, align 8, !tbaa !8
  store i64 %2, ptr %6, align 8, !tbaa !46
  %7 = call noundef ptr @_ZN5boost4asio6detail14thread_context24top_of_thread_call_stackEv()
  %8 = load ptr, ptr %5, align 8, !tbaa !8
  %9 = load i64, ptr %6, align 8, !tbaa !46
  %10 = mul i64 120, %9
  call void @_ZN5boost4asio6detail16thread_info_base10deallocateINS2_11default_tagEEEvT_PS2_Pvm(ptr noundef %7, ptr noundef %8, i64 noundef %10)
  ret void
}

; Function Attrs: mustprogress nounwind uwtable
define internal void @"_ZN5boost4asio6detail19recycling_allocatorINS1_12wait_handlerIZ4mainE3$_1NS0_15any_io_executorEEENS1_16thread_info_base11default_tagEEC2IvEERKNS2_IT_S8_EE"(ptr noundef nonnull align 1 dereferenceable(1) %0, ptr noundef nonnull align 1 dereferenceable(1) %1) unnamed_addr #6 align 2 {
  %3 = alloca ptr, align 8
  %4 = alloca ptr, align 8
  store ptr %0, ptr %3, align 8, !tbaa !8
  store ptr %1, ptr %4, align 8, !tbaa !8
  ret void
}

; Function Attrs: mustprogress uwtable
define linkonce_odr hidden void @_ZN5boost4asio6detail23get_recycling_allocatorISaIvENS1_16thread_info_base11default_tagEE3getERKS3_(ptr noundef nonnull align 1 dereferenceable(1) %0) #9 comdat align 2 {
  %2 = alloca %"class.boost::asio::detail::recycling_allocator.27", align 1
  %3 = alloca ptr, align 8
  store ptr %0, ptr %3, align 8, !tbaa !8
  call void @_ZN5boost4asio6detail19recycling_allocatorIvNS1_16thread_info_base11default_tagEEC2Ev(ptr noundef nonnull align 1 dereferenceable(1) %2)
  ret void
}

; Function Attrs: inlinehint mustprogress nounwind uwtable
define internal void @"_ZN5boost4asio24get_associated_allocatorIZ4mainE3$_1EENS0_20associated_allocatorIT_SaIvEE4typeERKS4_"(ptr noundef nonnull align 8 dereferenceable(8) %0) #5 {
  %2 = alloca ptr, align 8
  store ptr %0, ptr %2, align 8, !tbaa !8
  %3 = load ptr, ptr %2, align 8, !tbaa !8
  call void @"_ZN5boost4asio6detail25associated_allocator_implIZ4mainE3$_1SaIvEvvE3getERKS3_"(ptr noundef nonnull align 8 dereferenceable(8) %3) #3
  ret void
}

; Function Attrs: inlinehint mustprogress nounwind uwtable
define internal void @"_ZN5boost4asio6detail12wait_handlerIZ4mainE3$_1NS0_15any_io_executorEED2Ev"(ptr noundef nonnull align 8 dereferenceable(120) %0) unnamed_addr #5 align 2 {
  %2 = alloca ptr, align 8
  store ptr %0, ptr %2, align 8, !tbaa !8
  %3 = load ptr, ptr %2, align 8
  %4 = getelementptr inbounds nuw %"class.boost::asio::detail::wait_handler", ptr %3, i32 0, i32 2
  call void @_ZN5boost4asio6detail17handler_work_baseINS0_15any_io_executorEvNS0_10io_contextENS0_8executorEvED2Ev(ptr noundef nonnull align 8 dereferenceable(56) %4) #3
  call void @_ZN5boost4asio6detail19scheduler_operationD2Ev(ptr noundef nonnull align 8 dereferenceable(56) %3) #3
  ret void
}

; Function Attrs: mustprogress uwtable
define internal void @"_ZN5boost4asio6detail12wait_handlerIZ4mainE3$_1NS0_15any_io_executorEE3ptr5resetEv"(ptr noundef nonnull align 8 dereferenceable(24) %0) #9 align 2 {
  %2 = alloca ptr, align 8
  %3 = alloca %"class.boost::asio::detail::recycling_allocator.53", align 1
  %4 = alloca %"class.boost::asio::detail::recycling_allocator.27", align 1
  %5 = alloca %"class.std::allocator.25", align 1
  store ptr %0, ptr %2, align 8, !tbaa !8
  %6 = load ptr, ptr %2, align 8
  %7 = getelementptr inbounds nuw %"struct.boost::asio::detail::wait_handler<(lambda at /home/dtcxzyw/WorkSpace/Projects/compilers/llvm-opt-benchmark/bench/boost/boost/libs/process/test/v2/target.cpp:102:22), boost::asio::any_io_executor>::ptr", ptr %6, i32 0, i32 2
  %8 = load ptr, ptr %7, align 8, !tbaa !332
  %9 = icmp ne ptr %8, null
  br i1 %9, label %10, label %14

10:                                               ; preds = %1
  %11 = getelementptr inbounds nuw %"struct.boost::asio::detail::wait_handler<(lambda at /home/dtcxzyw/WorkSpace/Projects/compilers/llvm-opt-benchmark/bench/boost/boost/libs/process/test/v2/target.cpp:102:22), boost::asio::any_io_executor>::ptr", ptr %6, i32 0, i32 2
  %12 = load ptr, ptr %11, align 8, !tbaa !332
  call void @"_ZN5boost4asio6detail12wait_handlerIZ4mainE3$_1NS0_15any_io_executorEED2Ev"(ptr noundef nonnull align 8 dereferenceable(120) %12) #3
  %13 = getelementptr inbounds nuw %"struct.boost::asio::detail::wait_handler<(lambda at /home/dtcxzyw/WorkSpace/Projects/compilers/llvm-opt-benchmark/bench/boost/boost/libs/process/test/v2/target.cpp:102:22), boost::asio::any_io_executor>::ptr", ptr %6, i32 0, i32 2
  store ptr null, ptr %13, align 8, !tbaa !332
  br label %14

14:                                               ; preds = %10, %1
  %15 = getelementptr inbounds nuw %"struct.boost::asio::detail::wait_handler<(lambda at /home/dtcxzyw/WorkSpace/Projects/compilers/llvm-opt-benchmark/bench/boost/boost/libs/process/test/v2/target.cpp:102:22), boost::asio::any_io_executor>::ptr", ptr %6, i32 0, i32 1
  %16 = load ptr, ptr %15, align 8, !tbaa !331
  %17 = icmp ne ptr %16, null
  br i1 %17, label %18, label %24

18:                                               ; preds = %14
  call void @llvm.lifetime.start.p0(i64 1, ptr %3) #3
  call void @llvm.lifetime.start.p0(i64 1, ptr %4) #3
  call void @llvm.lifetime.start.p0(i64 1, ptr %5) #3
  %19 = getelementptr inbounds nuw %"struct.boost::asio::detail::wait_handler<(lambda at /home/dtcxzyw/WorkSpace/Projects/compilers/llvm-opt-benchmark/bench/boost/boost/libs/process/test/v2/target.cpp:102:22), boost::asio::any_io_executor>::ptr", ptr %6, i32 0, i32 0
  %20 = load ptr, ptr %19, align 8, !tbaa !329
  call void @"_ZN5boost4asio24get_associated_allocatorIZ4mainE3$_1EENS0_20associated_allocatorIT_SaIvEE4typeERKS4_"(ptr noundef nonnull align 8 dereferenceable(8) %20) #3
  call void @_ZN5boost4asio6detail23get_recycling_allocatorISaIvENS1_16thread_info_base11default_tagEE3getERKS3_(ptr noundef nonnull align 1 dereferenceable(1) %5)
  call void @"_ZN5boost4asio6detail19recycling_allocatorINS1_12wait_handlerIZ4mainE3$_1NS0_15any_io_executorEEENS1_16thread_info_base11default_tagEEC2IvEERKNS2_IT_S8_EE"(ptr noundef nonnull align 1 dereferenceable(1) %3, ptr noundef nonnull align 1 dereferenceable(1) %4)
  call void @llvm.lifetime.end.p0(i64 1, ptr %5) #3
  call void @llvm.lifetime.end.p0(i64 1, ptr %4) #3
  %21 = getelementptr inbounds nuw %"struct.boost::asio::detail::wait_handler<(lambda at /home/dtcxzyw/WorkSpace/Projects/compilers/llvm-opt-benchmark/bench/boost/boost/libs/process/test/v2/target.cpp:102:22), boost::asio::any_io_executor>::ptr", ptr %6, i32 0, i32 1
  %22 = load ptr, ptr %21, align 8, !tbaa !331
  call void @"_ZN5boost4asio6detail19recycling_allocatorINS1_12wait_handlerIZ4mainE3$_1NS0_15any_io_executorEEENS1_16thread_info_base11default_tagEE10deallocateEPS6_m"(ptr noundef nonnull align 1 dereferenceable(1) %3, ptr noundef %22, i64 noundef 1)
  %23 = getelementptr inbounds nuw %"struct.boost::asio::detail::wait_handler<(lambda at /home/dtcxzyw/WorkSpace/Projects/compilers/llvm-opt-benchmark/bench/boost/boost/libs/process/test/v2/target.cpp:102:22), boost::asio::any_io_executor>::ptr", ptr %6, i32 0, i32 1
  store ptr null, ptr %23, align 8, !tbaa !331
  call void @llvm.lifetime.end.p0(i64 1, ptr %3) #3
  br label %24

24:                                               ; preds = %18, %14
  ret void
}

; Function Attrs: mustprogress nounwind uwtable
define internal void @"_ZN5boost4asio6detail12wait_handlerIZ4mainE3$_1NS0_15any_io_executorEE3ptrD2Ev"(ptr noundef nonnull align 8 dereferenceable(24) %0) unnamed_addr #6 align 2 personality ptr @__gxx_personality_v0 {
  %2 = alloca ptr, align 8
  store ptr %0, ptr %2, align 8, !tbaa !8
  %3 = load ptr, ptr %2, align 8
  invoke void @"_ZN5boost4asio6detail12wait_handlerIZ4mainE3$_1NS0_15any_io_executorEE3ptr5resetEv"(ptr noundef nonnull align 8 dereferenceable(24) %3)
          to label %4 unwind label %5

4:                                                ; preds = %1
  ret void

5:                                                ; preds = %1
  %6 = landingpad { ptr, i32 }
          catch ptr null
  %7 = extractvalue { ptr, i32 } %6, 0
  call void @__clang_call_terminate(ptr %7) #26
  unreachable
}