; Function Attrs: mustprogress nounwind uwtable
define internal fastcc void @"_ZN5boost4asio6detail12wait_handlerIZ4mainE3$_1NS0_15any_io_executorEE3ptrD2Ev"(ptr nocapture noundef nonnull align 8 dereferenceable(24) %0) unnamed_addr #12 align 2 personality ptr @__gxx_personality_v0 {
  %2 = getelementptr inbounds nuw i8, ptr %0, i64 16
  %3 = load ptr, ptr %2, align 8, !tbaa !107
  %.not.i = icmp eq ptr %3, null
  br i1 %.not.i, label %16, label %4

4:                                                ; preds = %1
  %5 = getelementptr inbounds nuw i8, ptr %3, i64 96
  %6 = load ptr, ptr %5, align 8, !tbaa !83
  %7 = icmp eq ptr %6, null
  br i1 %7, label %"_ZN5boost4asio6detail12wait_handlerIZ4mainE3$_1NS0_15any_io_executorEED2Ev.exit.i", label %8

8:                                                ; preds = %4
  %9 = getelementptr inbounds nuw i8, ptr %3, i64 64
  %10 = getelementptr inbounds nuw i8, ptr %3, i64 88
  %11 = load ptr, ptr %10, align 8, !tbaa !80
  %12 = load ptr, ptr %11, align 8, !tbaa !260
  invoke void %12(ptr noundef nonnull align 8 dereferenceable(56) %9)
          to label %"_ZN5boost4asio6detail12wait_handlerIZ4mainE3$_1NS0_15any_io_executorEED2Ev.exit.i" unwind label %13

13:                                               ; preds = %8
  %14 = landingpad { ptr, i32 }
          catch ptr null
  %15 = extractvalue { ptr, i32 } %14, 0
  tail call void @__clang_call_terminate(ptr %15) #38
  unreachable

"_ZN5boost4asio6detail12wait_handlerIZ4mainE3$_1NS0_15any_io_executorEED2Ev.exit.i": ; preds = %8, %4
  store ptr null, ptr %2, align 8, !tbaa !107
  br label %16

16:                                               ; preds = %"_ZN5boost4asio6detail12wait_handlerIZ4mainE3$_1NS0_15any_io_executorEED2Ev.exit.i", %1
  %17 = getelementptr inbounds nuw i8, ptr %0, i64 8
  %18 = load ptr, ptr %17, align 8, !tbaa !103
  %.not1.i = icmp eq ptr %18, null
  br i1 %.not1.i, label %"_ZN5boost4asio6detail12wait_handlerIZ4mainE3$_1NS0_15any_io_executorEE3ptr5resetEv.exit", label %19

19:                                               ; preds = %16
  %20 = tail call align 8 ptr @llvm.threadlocal.address.p0(ptr align 8 @_ZN5boost4asio6detail15keyword_tss_ptrINS1_10call_stackINS1_14thread_contextENS1_16thread_info_baseEE7contextEE6value_E)
  %21 = load ptr, ptr %20, align 8, !tbaa !4
  %.not.i.i.i.i = icmp eq ptr %21, null
  br i1 %.not.i.i.i.i, label %.thread.i.i.i, label %_ZN5boost4asio6detail14thread_context24top_of_thread_call_stackEv.exit.i.i

_ZN5boost4asio6detail14thread_context24top_of_thread_call_stackEv.exit.i.i: ; preds = %19
  %22 = getelementptr inbounds nuw i8, ptr %21, i64 8
  %23 = load ptr, ptr %22, align 8, !tbaa !99
  %.not.i.i = icmp eq ptr %23, null
  br i1 %.not.i.i, label %.thread.i.i.i, label %.preheader.i.i.i

24:                                               ; preds = %.preheader.i.i.i
  br i1 %25, label %.preheader.i.i.i, label %.thread.i.i.i, !llvm.loop !277

.preheader.i.i.i:                                 ; preds = %_ZN5boost4asio6detail14thread_context24top_of_thread_call_stackEv.exit.i.i, %24
  %25 = phi i1 [ false, %24 ], [ true, %_ZN5boost4asio6detail14thread_context24top_of_thread_call_stackEv.exit.i.i ]
  %indvars.iv.i.i.i = phi i64 [ 1, %24 ], [ 0, %_ZN5boost4asio6detail14thread_context24top_of_thread_call_stackEv.exit.i.i ]
  %26 = getelementptr inbounds [12 x ptr], ptr %23, i64 0, i64 %indvars.iv.i.i.i
  %27 = load ptr, ptr %26, align 8, !tbaa !4
  %28 = icmp eq ptr %27, null
  br i1 %28, label %29, label %24

29:                                               ; preds = %.preheader.i.i.i
  %30 = getelementptr inbounds [12 x ptr], ptr %23, i64 0, i64 %indvars.iv.i.i.i
  %31 = getelementptr inbounds nuw i8, ptr %18, i64 120
  %32 = load i8, ptr %31, align 1, !tbaa !14
  store i8 %32, ptr %18, align 1, !tbaa !14
  store ptr %18, ptr %30, align 8, !tbaa !4
  br label %"_ZN5boost4asio6detail19recycling_allocatorINS1_12wait_handlerIZ4mainE3$_1NS0_15any_io_executorEEENS1_16thread_info_base11default_tagEE10deallocateEPS6_m.exit.i"

.thread.i.i.i:                                    ; preds = %24, %_ZN5boost4asio6detail14thread_context24top_of_thread_call_stackEv.exit.i.i, %19
  tail call void @free(ptr noundef %18) #37
  br label %"_ZN5boost4asio6detail19recycling_allocatorINS1_12wait_handlerIZ4mainE3$_1NS0_15any_io_executorEEENS1_16thread_info_base11default_tagEE10deallocateEPS6_m.exit.i"

"_ZN5boost4asio6detail19recycling_allocatorINS1_12wait_handlerIZ4mainE3$_1NS0_15any_io_executorEEENS1_16thread_info_base11default_tagEE10deallocateEPS6_m.exit.i": ; preds = %.thread.i.i.i, %29
  store ptr null, ptr %17, align 8, !tbaa !103
  br label %"_ZN5boost4asio6detail12wait_handlerIZ4mainE3$_1NS0_15any_io_executorEE3ptr5resetEv.exit"

"_ZN5boost4asio6detail12wait_handlerIZ4mainE3$_1NS0_15any_io_executorEE3ptr5resetEv.exit": ; preds = %"_ZN5boost4asio6detail19recycling_allocatorINS1_12wait_handlerIZ4mainE3$_1NS0_15any_io_executorEEENS1_16thread_info_base11default_tagEE10deallocateEPS6_m.exit.i", %16
  ret void
}